; Function Attrs: nounwind uwtable
define hidden ptr @d2i_PUBKEY(ptr noundef %a, ptr noundef %pp, i64 noundef %length) local_unnamed_addr #0 {
entry:
  %call.i = tail call ptr @ASN1_item_d2i(ptr noundef null, ptr noundef %pp, i64 noundef %length, ptr noundef nonnull @X509_PUBKEY_it) #5
  %tobool.not = icmp eq ptr %call.i, null
  br i1 %tobool.not, label %return, label %if.end

if.end:                                           ; preds = %entry
  %call1 = tail call ptr @X509_PUBKEY_get(ptr noundef nonnull %call.i)
  tail call void @ASN1_item_free(ptr noundef nonnull %call.i, ptr noundef nonnull @X509_PUBKEY_it) #5
  %tobool2.not = icmp eq ptr %call1, null
  br i1 %tobool2.not, label %return, label %if.end4

if.end4:                                          ; preds = %if.end
  %tobool5.not = icmp eq ptr %a, null
  br i1 %tobool5.not, label %return, label %if.then6

if.then6:                                         ; preds = %if.end4
  %0 = load ptr, ptr %a, align 8
  tail call void @EVP_PKEY_free(ptr noundef %0) #5
  store ptr %call1, ptr %a, align 8
  br label %return

return:                                           ; preds = %if.end4, %if.then6, %if.end, %entry
  %retval.0 = phi ptr [ null, %entry ], [ null, %if.end ], [ %call1, %if.then6 ], [ %call1, %if.end4 ]
  ret ptr %retval.0
}